target datalayout = "e-m:e-p270:32:32-p271:32:32-p272:64:64-i64:64-i128:128-f80:128-n8:16:32:64-S128"
target triple = "x86_64-pc-linux-gnu"

%struct.expert_field = type { i32, i32 }

@hf_router_identity_ip_index = internal global i32 0, align 4
@hf_router_identity_ipv4 = internal global i32 0, align 4
@hf_router_identity_ipv6 = internal global i32 0, align 4
@hf_router_identity_receive_id = internal global i32 0, align 4
@hf_router_query_info_send_to_ip_index = internal global i32 0, align 4
@hf_router_query_info_send_to_ipv4 = internal global i32 0, align 4
@hf_router_query_info_send_to_ipv6 = internal global i32 0, align 4
@hf_router_query_info_target_ip_index = internal global i32 0, align 4
@hf_router_query_info_target_ipv4 = internal global i32 0, align 4
@hf_router_query_info_target_ipv6 = internal global i32 0, align 4
@ei_wccp_router_identity_receive_id_zero = internal global %struct.expert_field zeroinitializer, align 4

; Function Attrs: null_pointer_is_valid sspstrong uwtable
define internal void @dissect_wccp2_router_identity_element(ptr noundef %0, i32 noundef %1, ptr noundef %2, ptr noundef %3, ptr noundef %4) #0 {
  %6 = alloca ptr, align 8
  %7 = alloca i32, align 4
  %8 = alloca ptr, align 8
  %9 = alloca ptr, align 8
  %10 = alloca ptr, align 8
  %11 = alloca ptr, align 8
  store ptr %0, ptr %6, align 8
  store i32 %1, ptr %7, align 4
  store ptr %2, ptr %8, align 8
  store ptr %3, ptr %9, align 8
  store ptr %4, ptr %10, align 8
  call void @llvm.lifetime.start.p0(i64 8, ptr %11) #9
  %12 = load ptr, ptr %9, align 8
  %13 = load i32, ptr @hf_router_identity_ip_index, align 4
  %14 = load i32, ptr @hf_router_identity_ipv4, align 4
  %15 = load i32, ptr @hf_router_identity_ipv6, align 4
  %16 = load ptr, ptr %6, align 8
  %17 = load i32, ptr %7, align 4
  %18 = load ptr, ptr %10, align 8
  %19 = call ptr @wccp_add_ipaddress_item(ptr noundef %12, i32 noundef %13, i32 noundef %14, i32 noundef %15, ptr noundef %16, i32 noundef %17, i32 noundef 4, ptr noundef %18)
  %20 = load ptr, ptr %9, align 8
  %21 = load i32, ptr @hf_router_identity_receive_id, align 4
  %22 = load ptr, ptr %6, align 8
  %23 = load i32, ptr %7, align 4
  %24 = add i32 %23, 4
  %25 = call ptr @proto_tree_add_item(ptr noundef %20, i32 noundef %21, ptr noundef %22, i32 noundef %24, i32 noundef 4, i32 noundef 0)
  store ptr %25, ptr %11, align 8
  %26 = load ptr, ptr %6, align 8
  %27 = load i32, ptr %7, align 4
  %28 = add i32 %27, 4
  %29 = call i32 @tvb_get_ntohl(ptr noundef %26, i32 noundef %28)
  %30 = icmp eq i32 %29, 0
  br i1 %30, label %31, label %35

31:                                               ; preds = %5
  %32 = load ptr, ptr %8, align 8
  %33 = load ptr, ptr %11, align 8
  %34 = call ptr @expert_add_info(ptr noundef %32, ptr noundef %33, ptr noundef @ei_wccp_router_identity_receive_id_zero)
  br label %35

35:                                               ; preds = %31, %5
  call void @llvm.lifetime.end.p0(i64 8, ptr %11) #9
  ret void
}

; Function Attrs: null_pointer_is_valid sspstrong uwtable
define internal i32 @dissect_wccp2_router_query_info(ptr noundef %0, i32 noundef %1, i32 noundef %2, ptr noundef %3, ptr noundef %4, ptr noundef %5) #0 {
  %7 = alloca i32, align 4
  %8 = alloca ptr, align 8
  %9 = alloca i32, align 4
  %10 = alloca i32, align 4
  %11 = alloca ptr, align 8
  %12 = alloca ptr, align 8
  %13 = alloca ptr, align 8
  store ptr %0, ptr %8, align 8
  store i32 %1, ptr %9, align 4
  store i32 %2, ptr %10, align 4
  store ptr %3, ptr %11, align 8
  store ptr %4, ptr %12, align 8
  store ptr %5, ptr %13, align 8
  %14 = load i32, ptr %10, align 4
  %15 = icmp slt i32 %14, 16
  br i1 %15, label %16, label %19

16:                                               ; preds = %6
  %17 = load i32, ptr %10, align 4
  %18 = sub i32 %17, 16
  store i32 %18, ptr %7, align 4
  br label %66

19:                                               ; preds = %6
  %20 = load ptr, ptr %8, align 8
  %21 = load i32, ptr %9, align 4
  %22 = load ptr, ptr %11, align 8
  %23 = load ptr, ptr %12, align 8
  %24 = load ptr, ptr %13, align 8
  call void @dissect_wccp2_router_identity_element(ptr noundef %20, i32 noundef %21, ptr noundef %22, ptr noundef %23, ptr noundef %24)
  %25 = load i32, ptr %10, align 4
  %26 = sub i32 %25, 8
  store i32 %26, ptr %10, align 4
  %27 = load i32, ptr %9, align 4
  %28 = add i32 %27, 8
  store i32 %28, ptr %9, align 4
  %29 = load i32, ptr %10, align 4
  %30 = icmp slt i32 %29, 4
  br i1 %30, label %31, label %34

31:                                               ; preds = %19
  %32 = load i32, ptr %10, align 4
  %33 = sub i32 %32, 4
  store i32 %33, ptr %7, align 4
  br label %66

34:                                               ; preds = %19
  %35 = load ptr, ptr %12, align 8
  %36 = load i32, ptr @hf_router_query_info_send_to_ip_index, align 4
  %37 = load i32, ptr @hf_router_query_info_send_to_ipv4, align 4
  %38 = load i32, ptr @hf_router_query_info_send_to_ipv6, align 4
  %39 = load ptr, ptr %8, align 8
  %40 = load i32, ptr %9, align 4
  %41 = load ptr, ptr %13, align 8
  %42 = call ptr @wccp_add_ipaddress_item(ptr noundef %35, i32 noundef %36, i32 noundef %37, i32 noundef %38, ptr noundef %39, i32 noundef %40, i32 noundef 4, ptr noundef %41)
  %43 = load i32, ptr %10, align 4
  %44 = sub i32 %43, 4
  store i32 %44, ptr %10, align 4
  %45 = load i32, ptr %9, align 4
  %46 = add i32 %45, 4
  store i32 %46, ptr %9, align 4
  %47 = load i32, ptr %10, align 4
  %48 = icmp slt i32 %47, 4
  br i1 %48, label %49, label %52

49:                                               ; preds = %34
  %50 = load i32, ptr %10, align 4
  %51 = sub i32 %50, 4
  store i32 %51, ptr %7, align 4
  br label %66

52:                                               ; preds = %34
  %53 = load ptr, ptr %12, align 8
  %54 = load i32, ptr @hf_router_query_info_target_ip_index, align 4
  %55 = load i32, ptr @hf_router_query_info_target_ipv4, align 4
  %56 = load i32, ptr @hf_router_query_info_target_ipv6, align 4
  %57 = load ptr, ptr %8, align 8
  %58 = load i32, ptr %9, align 4
  %59 = load ptr, ptr %13, align 8
  %60 = call ptr @wccp_add_ipaddress_item(ptr noundef %53, i32 noundef %54, i32 noundef %55, i32 noundef %56, ptr noundef %57, i32 noundef %58, i32 noundef 4, ptr noundef %59)
  %61 = load i32, ptr %10, align 4
  %62 = sub i32 %61, 4
  store i32 %62, ptr %10, align 4
  %63 = load i32, ptr %9, align 4
  %64 = add i32 %63, 4
  store i32 %64, ptr %9, align 4
  %65 = load i32, ptr %10, align 4
  store i32 %65, ptr %7, align 4
  br label %66

66:                                               ; preds = %52, %49, %31, %16
  %67 = load i32, ptr %7, align 4
  ret i32 %67
}