; Function Attrs: null_pointer_is_valid sspstrong uwtable
define internal noundef i32 @dissect_wccp2_router_query_info(ptr noundef %0, i32 noundef %1, i32 noundef %2, ptr noundef %3, ptr noundef %4, ptr noundef readonly captures(none) %5) unnamed_addr #0 {
  %7 = icmp slt i32 %2, 16
  br i1 %7, label %30, label %8

8:                                                ; preds = %6
  %9 = load i32, ptr @hf_router_identity_ip_index, align 4
  %10 = load i32, ptr @hf_router_identity_ipv4, align 4
  %11 = load i32, ptr @hf_router_identity_ipv6, align 4
  %12 = tail call fastcc ptr @wccp_add_ipaddress_item(ptr noundef %4, i32 noundef %9, i32 noundef %10, i32 noundef %11, ptr noundef %0, i32 noundef %1, ptr noundef readonly %5)
  %13 = load i32, ptr @hf_router_identity_receive_id, align 4
  %14 = add i32 %1, 4
  %15 = tail call ptr @proto_tree_add_item(ptr noundef %4, i32 noundef %13, ptr noundef %0, i32 noundef %14, i32 noundef 4, i32 noundef 0)
  %16 = tail call i32 @tvb_get_ntohl(ptr noundef %0, i32 noundef %14)
  %17 = icmp eq i32 %16, 0
  br i1 %17, label %18, label %dissect_wccp2_router_identity_element.exit

18:                                               ; preds = %8
  %19 = tail call ptr @expert_add_info(ptr noundef %3, ptr noundef %15, ptr noundef nonnull @ei_wccp_router_identity_receive_id_zero)
  br label %dissect_wccp2_router_identity_element.exit

dissect_wccp2_router_identity_element.exit:       ; preds = %8, %18
  %20 = add i32 %1, 8
  %21 = load i32, ptr @hf_router_query_info_send_to_ip_index, align 4
  %22 = load i32, ptr @hf_router_query_info_send_to_ipv4, align 4
  %23 = load i32, ptr @hf_router_query_info_send_to_ipv6, align 4
  %24 = tail call fastcc ptr @wccp_add_ipaddress_item(ptr noundef %4, i32 noundef %21, i32 noundef %22, i32 noundef %23, ptr noundef %0, i32 noundef %20, ptr noundef %5)
  %25 = add i32 %1, 12
  %26 = load i32, ptr @hf_router_query_info_target_ip_index, align 4
  %27 = load i32, ptr @hf_router_query_info_target_ipv4, align 4
  %28 = load i32, ptr @hf_router_query_info_target_ipv6, align 4
  %29 = tail call fastcc ptr @wccp_add_ipaddress_item(ptr noundef %4, i32 noundef %26, i32 noundef %27, i32 noundef %28, ptr noundef %0, i32 noundef %25, ptr noundef %5)
  br label %30

30:                                               ; preds = %6, %dissect_wccp2_router_identity_element.exit
  %.0 = add i32 %2, -16
  ret i32 %.0
}